; Function Attrs: nounwind uwtable
define internal fastcc noundef i32 @__redisAsyncHandleConnect(ptr noundef %ac) unnamed_addr #0 {
entry:
  %completed = alloca i32, align 4
  store i32 0, ptr %completed, align 4
  %call = call i32 @redisCheckConnectDone(ptr noundef %ac, ptr noundef nonnull %completed) #14
  %cmp = icmp eq i32 %call, -1
  br i1 %cmp, label %if.then, label %if.else

if.then:                                          ; preds = %entry
  %call2 = call i32 @redisCheckSocketError(ptr noundef %ac) #14
  %cmp3 = icmp ne i32 %call2, -1
  %tobool.not.i = icmp eq ptr %ac, null
  %or.cond = or i1 %tobool.not.i, %cmp3
  br i1 %or.cond, label %if.end, label %if.end.i

if.end.i:                                         ; preds = %if.then
  %err.i = getelementptr inbounds i8, ptr %ac, i64 8
  %0 = load i32, ptr %err.i, align 8
  %err2.i = getelementptr inbounds i8, ptr %ac, i64 272
  store i32 %0, ptr %err2.i, align 8
  %errstr.i = getelementptr inbounds i8, ptr %ac, i64 12
  %errstr3.i = getelementptr inbounds i8, ptr %ac, i64 280
  store ptr %errstr.i, ptr %errstr3.i, align 8
  br label %if.end

if.end:                                           ; preds = %if.end.i, %if.then
  call fastcc void @__redisAsyncHandleConnectFailure(ptr noundef %ac)
  br label %return

if.else:                                          ; preds = %entry
  %1 = load i32, ptr %completed, align 4
  %cmp5 = icmp eq i32 %1, 1
  br i1 %cmp5, label %if.then6, label %return

if.then6:                                         ; preds = %if.else
  %connection_type = getelementptr inbounds i8, ptr %ac, i64 168
  %2 = load i32, ptr %connection_type, align 8
  %cmp7 = icmp eq i32 %2, 0
  br i1 %cmp7, label %land.lhs.true, label %if.end11

land.lhs.true:                                    ; preds = %if.then6
  %call8 = call i32 @redisSetTcpNoDelay(ptr noundef nonnull %ac) #14
  %cmp9 = icmp eq i32 %call8, -1
  br i1 %cmp9, label %if.then10, label %if.end11

if.then10:                                        ; preds = %land.lhs.true
  call fastcc void @__redisAsyncHandleConnectFailure(ptr noundef nonnull %ac)
  br label %return

if.end11:                                         ; preds = %land.lhs.true, %if.then6
  %flags = getelementptr inbounds i8, ptr %ac, i64 144
  %3 = load i32, ptr %flags, align 8
  %or = or i32 %3, 2
  store i32 %or, ptr %flags, align 8
  %onConnect.i = getelementptr inbounds i8, ptr %ac, i64 368
  %4 = load ptr, ptr %onConnect.i, align 8
  %cmp.i = icmp eq ptr %4, null
  br i1 %cmp.i, label %land.lhs.true.i, label %if.end.thread.i

land.lhs.true.i:                                  ; preds = %if.end11
  %onConnectNC.i = getelementptr inbounds i8, ptr %ac, i64 376
  %5 = load ptr, ptr %onConnectNC.i, align 8
  %cmp1.i = icmp eq ptr %5, null
  br i1 %cmp1.i, label %__redisRunConnectCallback.exit, label %if.end.i13

if.end.i13:                                       ; preds = %land.lhs.true.i
  %and.i = and i32 %3, 16
  %tobool.not.i14 = icmp eq i32 %and.i, 0
  br i1 %tobool.not.i14, label %if.end10.i, label %if.else19.i

if.end.thread.i:                                  ; preds = %if.end11
  %and20.i = and i32 %3, 16
  %tobool.not21.i = icmp eq i32 %and20.i, 0
  br i1 %tobool.not21.i, label %if.end10.i, label %if.then17.i

if.end10.i:                                       ; preds = %if.end.thread.i, %if.end.i13
  %.sink.i = phi ptr [ %4, %if.end.thread.i ], [ %5, %if.end.i13 ]
  %or.i = or i32 %3, 18
  store i32 %or.i, ptr %flags, align 8
  call void %.sink.i(ptr noundef nonnull %ac, i32 noundef 0) #14
  %6 = load i32, ptr %flags, align 8
  %and13.i = and i32 %6, -17
  store i32 %and13.i, ptr %flags, align 8
  br label %__redisRunConnectCallback.exit

if.then17.i:                                      ; preds = %if.end.thread.i
  call void %4(ptr noundef nonnull %ac, i32 noundef 0) #14
  br label %__redisRunConnectCallback.exit

if.else19.i:                                      ; preds = %if.end.i13
  call void %5(ptr noundef nonnull %ac, i32 noundef 0) #14
  br label %__redisRunConnectCallback.exit

__redisRunConnectCallback.exit:                   ; preds = %land.lhs.true.i, %if.end10.i, %if.then17.i, %if.else19.i
  %7 = load i32, ptr %flags, align 8
  %and = and i32 %7, 4
  %tobool.not = icmp eq i32 %and, 0
  br i1 %tobool.not, label %if.else15, label %if.then14

if.then14:                                        ; preds = %__redisRunConnectCallback.exit
  %and.i17 = and i32 %7, -513
  store i32 %and.i17, ptr %flags, align 8
  %and4.i = and i32 %7, 16
  %tobool.not.i18 = icmp eq i32 %and4.i, 0
  br i1 %tobool.not.i18, label %land.lhs.true.i20, label %return

land.lhs.true.i20:                                ; preds = %if.then14
  %replies.i = getelementptr inbounds i8, ptr %ac, i64 384
  %8 = load ptr, ptr %replies.i, align 8
  %cmp.i21 = icmp eq ptr %8, null
  br i1 %cmp.i21, label %__redisAsyncCopyError.exit.i.i, label %return

__redisAsyncCopyError.exit.i.i:                   ; preds = %land.lhs.true.i20
  %err.i.i.i = getelementptr inbounds i8, ptr %ac, i64 8
  %9 = load i32, ptr %err.i.i.i, align 8
  %err2.i.i.i = getelementptr inbounds i8, ptr %ac, i64 272
  store i32 %9, ptr %err2.i.i.i, align 8
  %errstr.i.i.i = getelementptr inbounds i8, ptr %ac, i64 12
  %errstr3.i.i.i = getelementptr inbounds i8, ptr %ac, i64 280
  store ptr %errstr.i.i.i, ptr %errstr3.i.i.i, align 8
  %cleanup.i.i = getelementptr inbounds i8, ptr %ac, i64 344
  %10 = load ptr, ptr %cleanup.i.i, align 8
  %tobool.not.i.i = icmp eq ptr %10, null
  br i1 %tobool.not.i.i, label %if.then12.i.i, label %if.end7.i.i

if.end7.i.i:                                      ; preds = %__redisAsyncCopyError.exit.i.i
  %ev.i.i = getelementptr inbounds i8, ptr %ac, i64 304
  %11 = load ptr, ptr %ev.i.i, align 8
  call void %10(ptr noundef %11) #14
  %.pre.i = load i32, ptr %flags, align 8
  %12 = and i32 %.pre.i, 512
  %13 = icmp eq i32 %12, 0
  store ptr null, ptr %cleanup.i.i, align 8
  br i1 %13, label %if.then12.i.i, label %return

if.then12.i.i:                                    ; preds = %if.end7.i.i, %__redisAsyncCopyError.exit.i.i
  call fastcc void @__redisAsyncFree(ptr noundef nonnull %ac)
  br label %return

if.else15:                                        ; preds = %__redisRunConnectCallback.exit
  %and18 = and i32 %7, 8
  %tobool19.not = icmp eq i32 %and18, 0
  br i1 %tobool19.not, label %return, label %if.end.i23

if.end.i23:                                       ; preds = %if.else15
  %and.i26 = and i32 %7, 16
  %tobool.not.i27 = icmp eq i32 %and.i26, 0
  br i1 %tobool.not.i27, label %if.then3.i, label %return

if.then3.i:                                       ; preds = %if.end.i23
  call fastcc void @__redisAsyncFree(ptr noundef nonnull %ac)
  br label %return

return:                                           ; preds = %if.then3.i, %if.end.i23, %if.then12.i.i, %if.end7.i.i, %land.lhs.true.i20, %if.then14, %if.else, %if.else15, %if.then10, %if.end
  %retval.0 = phi i32 [ -1, %if.end ], [ -1, %if.then10 ], [ 0, %if.else15 ], [ 0, %if.else ], [ -1, %if.then14 ], [ -1, %land.lhs.true.i20 ], [ -1, %if.end7.i.i ], [ -1, %if.then12.i.i ], [ -1, %if.end.i23 ], [ -1, %if.then3.i ]
  ret i32 %retval.0
}